; Function Attrs: inlinehint mustprogress nounwind uwtable
define internal void @_ZN2cv12_GLOBAL__N_120VideoBackendRegistryD2Ev(ptr noundef nonnull readonly align 8 captures(none) dereferenceable(24) %0) unnamed_addr #3 align 2 personality ptr @__gxx_personality_v0 {
  %2 = load ptr, ptr %0, align 8, !tbaa !25
  %3 = getelementptr inbounds nuw i8, ptr %0, i64 8
  %4 = load ptr, ptr %3, align 8, !tbaa !22
  %.not4.i.i.i.i = icmp eq ptr %2, %4
  br i1 %.not4.i.i.i.i, label %_ZSt8_DestroyIPN2cv16VideoBackendInfoES1_EvT_S3_RSaIT0_E.exit.i, label %.lr.ph.i.i.i.i

.lr.ph.i.i.i.i:                                   ; preds = %1, %_ZSt8_DestroyIN2cv16VideoBackendInfoEEvPT_.exit.i.i.i.i
  %.05.i.i.i.i = phi ptr [ %28, %_ZSt8_DestroyIN2cv16VideoBackendInfoEEvPT_.exit.i.i.i.i ], [ %2, %1 ]
  %5 = getelementptr inbounds nuw i8, ptr %.05.i.i.i.i, i64 32
  %6 = load ptr, ptr %5, align 8, !tbaa !3
  %.not.i.i.i.i.i.i.i.i = icmp eq ptr %6, null
  br i1 %.not.i.i.i.i.i.i.i.i, label %_ZSt8_DestroyIN2cv16VideoBackendInfoEEvPT_.exit.i.i.i.i, label %7

7:                                                ; preds = %.lr.ph.i.i.i.i
  %8 = getelementptr inbounds nuw i8, ptr %6, i64 8
  %9 = load atomic i64, ptr %8 acquire, align 8
  %10 = icmp eq i64 %9, 4294967297
  %11 = trunc i64 %9 to i32
  br i1 %10, label %12, label %20

12:                                               ; preds = %7
  store i32 0, ptr %8, align 8, !tbaa !9
  %13 = getelementptr inbounds nuw i8, ptr %6, i64 12
  store i32 0, ptr %13, align 4, !tbaa !12
  %14 = load ptr, ptr %6, align 8, !tbaa !13
  %15 = getelementptr inbounds nuw i8, ptr %14, i64 16
  %16 = load ptr, ptr %15, align 8
  tail call void %16(ptr noundef nonnull align 8 dereferenceable(16) %6) #22
  %17 = load ptr, ptr %6, align 8, !tbaa !13
  %18 = getelementptr inbounds nuw i8, ptr %17, i64 24
  %19 = load ptr, ptr %18, align 8
  tail call void %19(ptr noundef nonnull align 8 dereferenceable(16) %6) #22
  br label %_ZSt8_DestroyIN2cv16VideoBackendInfoEEvPT_.exit.i.i.i.i

20:                                               ; preds = %7
  %21 = load i8, ptr @__libc_single_threaded, align 1, !tbaa !15
  %.not.i.i.i.i.i.i.i.i.i = icmp eq i8 %21, 0
  br i1 %.not.i.i.i.i.i.i.i.i.i, label %24, label %22

22:                                               ; preds = %20
  %23 = add nsw i32 %11, -1
  store i32 %23, ptr %8, align 4, !tbaa !16
  br label %_ZN9__gnu_cxx27__exchange_and_add_dispatchEPii.exit.i.i.i.i.i.i.i.i.i

24:                                               ; preds = %20
  %25 = atomicrmw volatile add ptr %8, i32 -1 acq_rel, align 4
  br label %_ZN9__gnu_cxx27__exchange_and_add_dispatchEPii.exit.i.i.i.i.i.i.i.i.i

_ZN9__gnu_cxx27__exchange_and_add_dispatchEPii.exit.i.i.i.i.i.i.i.i.i: ; preds = %24, %22
  %.0.i.i.i.i.i.i.i.i.i.i = phi i32 [ %11, %22 ], [ %25, %24 ]
  %26 = icmp eq i32 %.0.i.i.i.i.i.i.i.i.i.i, 1
  br i1 %26, label %27, label %_ZSt8_DestroyIN2cv16VideoBackendInfoEEvPT_.exit.i.i.i.i, !prof !17

27:                                               ; preds = %_ZN9__gnu_cxx27__exchange_and_add_dispatchEPii.exit.i.i.i.i.i.i.i.i.i
  tail call void @_ZNSt16_Sp_counted_baseILN9__gnu_cxx12_Lock_policyE2EE24_M_release_last_use_coldEv(ptr noundef nonnull align 8 dereferenceable(16) %6) #22
  br label %_ZSt8_DestroyIN2cv16VideoBackendInfoEEvPT_.exit.i.i.i.i

_ZSt8_DestroyIN2cv16VideoBackendInfoEEvPT_.exit.i.i.i.i: ; preds = %27, %_ZN9__gnu_cxx27__exchange_and_add_dispatchEPii.exit.i.i.i.i.i.i.i.i.i, %12, %.lr.ph.i.i.i.i
  %28 = getelementptr inbounds nuw i8, ptr %.05.i.i.i.i, i64 40
  %.not.i.i.i.i = icmp eq ptr %28, %4
  br i1 %.not.i.i.i.i, label %_ZSt8_DestroyIPN2cv16VideoBackendInfoES1_EvT_S3_RSaIT0_E.exitthread-pre-split.i, label %.lr.ph.i.i.i.i, !llvm.loop !39

_ZSt8_DestroyIPN2cv16VideoBackendInfoES1_EvT_S3_RSaIT0_E.exitthread-pre-split.i: ; preds = %_ZSt8_DestroyIN2cv16VideoBackendInfoEEvPT_.exit.i.i.i.i
  %.pr.i = load ptr, ptr %0, align 8, !tbaa !25
  br label %_ZSt8_DestroyIPN2cv16VideoBackendInfoES1_EvT_S3_RSaIT0_E.exit.i

_ZSt8_DestroyIPN2cv16VideoBackendInfoES1_EvT_S3_RSaIT0_E.exit.i: ; preds = %_ZSt8_DestroyIPN2cv16VideoBackendInfoES1_EvT_S3_RSaIT0_E.exitthread-pre-split.i, %1
  %29 = phi ptr [ %.pr.i, %_ZSt8_DestroyIPN2cv16VideoBackendInfoES1_EvT_S3_RSaIT0_E.exitthread-pre-split.i ], [ %2, %1 ]
  %.not.i.i.i = icmp eq ptr %29, null
  br i1 %.not.i.i.i, label %_ZNSt6vectorIN2cv16VideoBackendInfoESaIS1_EED2Ev.exit, label %30

30:                                               ; preds = %_ZSt8_DestroyIPN2cv16VideoBackendInfoES1_EvT_S3_RSaIT0_E.exit.i
  tail call void @_ZdlPv(ptr noundef nonnull %29) #23
  br label %_ZNSt6vectorIN2cv16VideoBackendInfoESaIS1_EED2Ev.exit

_ZNSt6vectorIN2cv16VideoBackendInfoESaIS1_EED2Ev.exit: ; preds = %_ZSt8_DestroyIPN2cv16VideoBackendInfoES1_EvT_S3_RSaIT0_E.exit.i, %30
  ret void
}